Certificate:
    Data:
        Version: 3 (0x2)
        Serial Number: 1 (0x1)
        Signature Algorithm: sha256WithRSAEncryption
        Issuer: C=UG, ST=Kampala, L=Kololo, Mabua Road, O=Research and Education Network for Uganda (RENU)/emailAddress=systems@renu.ac.ug, CN=RENU Certificate Authority
        Validity
            Not Before: Jun 28 15:45:38 2023 GMT
            Not After : May  6 15:45:38 2033 GMT
        Subject: C=UG, ST=Kampala, O=Research and Education Network for Uganda (RENU), CN=mgd-idp-radius2.renu.ac.ug/emailAddress=systems@renu.ac.ug
        Subject Public Key Info:
            Public Key Algorithm: rsaEncryption
                RSA Public-Key: (2048 bit)
                Modulus:
                    00:bd:d8:a0:f0:ad:c4:0f:e6:49:0c:c3:f5:78:27:
                    9e:33:ef:a1:b9:13:13:84:b5:89:68:35:50:07:bc:
                    03:a7:70:76:10:04:c8:85:1c:a9:7b:97:50:80:23:
                    45:13:da:a6:c1:72:5e:0c:11:7a:cf:f7:f3:1d:d3:
                    eb:9b:eb:ec:c1:bc:e5:85:55:ca:6e:d4:6b:ae:88:
                    e4:1f:f6:1e:5b:08:51:f7:c6:30:cf:ce:39:c5:76:
                    a7:fb:33:6d:e2:5b:ef:3c:9c:cd:60:a1:f3:97:7b:
                    ba:11:cd:96:b8:31:e0:2a:ac:d4:e1:0b:cc:ad:56:
                    ad:a0:bb:f6:a3:8e:f8:e9:cc:16:cb:05:98:65:83:
                    75:77:13:5c:32:46:40:48:37:22:e5:02:5d:f4:f6:
                    20:a0:fc:e7:6f:df:3e:a8:e1:00:62:46:fb:33:9d:
                    c1:a3:09:72:bd:24:2f:78:8e:c9:62:33:08:92:e0:
                    1d:4a:2f:2e:8b:f1:70:d9:10:a5:d7:2d:7e:96:b6:
                    7c:9a:26:32:b1:83:1c:24:db:b4:c2:59:c7:5a:5d:
                    f2:67:2c:58:4e:be:29:2e:bd:72:35:5f:a4:96:46:
                    39:7b:cb:04:15:d3:af:ac:38:3f:9e:67:48:3c:0c:
                    93:23:ed:7e:a6:95:5a:cf:52:0e:c4:0e:c0:c0:5f:
                    1d:3f
                Exponent: 65537 (0x10001)
        X509v3 extensions:
            X509v3 Extended Key Usage: 
                TLS Web Server Authentication
            X509v3 CRL Distribution Points: 

                Full Name:
                  URI:http://www.example.com/example_ca.crl

            X509v3 Certificate Policies: 
                Policy: 1.3.6.1.4.1.40808.1.3.2

    Signature Algorithm: sha256WithRSAEncryption
         69:7f:45:27:a8:b1:bc:17:09:6f:42:1f:78:c8:12:99:c3:6d:
         7d:76:78:d3:f4:5d:35:8e:d4:d1:8c:c2:9a:61:02:3e:1a:b6:
         c8:ee:79:19:6e:5f:b2:0f:e5:26:51:1b:32:f9:e9:4c:85:aa:
         11:3a:02:26:8c:1e:27:80:84:c7:ba:bc:b0:a4:34:33:9f:d7:
         d0:17:f1:52:13:d2:bd:b8:b3:f0:43:ff:54:20:03:b8:82:1a:
         8c:44:4e:90:59:2c:e1:d8:39:70:5a:0a:94:b4:3a:96:c0:c6:
         7d:af:4a:5d:62:1c:d0:db:0e:ed:b7:fd:89:44:58:ec:77:53:
         ad:14:a4:a7:07:05:84:32:fc:f8:72:92:d9:3d:13:d0:e1:a0:
         07:9c:af:80:ec:f4:4b:7f:3f:2d:9e:36:c9:50:e4:bc:5e:2c:
         7c:38:47:63:8a:d2:24:f4:ba:cc:a6:ed:db:62:cd:89:8e:61:
         b2:07:90:7e:91:3f:19:73:8d:77:06:7f:65:86:f6:78:4f:d9:
         78:75:f6:57:38:c1:fa:d2:7d:97:6a:d7:77:2e:22:8d:a2:e4:
         93:1d:8a:ae:01:84:bd:2e:3f:9a:09:44:d0:5b:6e:db:d7:dc:
         b5:ef:60:ff:b1:99:bf:1b:96:c3:67:00:68:d2:de:7c:9f:12:
         09:29:db:d2
-----BEGIN CERTIFICATE-----
MIIERzCCAy+gAwIBAgIBATANBgkqhkiG9w0BAQsFADCBvzELMAkGA1UEBhMCVUcx
EDAOBgNVBAgMB0thbXBhbGExGzAZBgNVBAcMEktvbG9sbywgTWFidWEgUm9hZDE5
MDcGA1UECgwwUmVzZWFyY2ggYW5kIEVkdWNhdGlvbiBOZXR3b3JrIGZvciBVZ2Fu
ZGEgKFJFTlUpMSEwHwYJKoZIhvcNAQkBFhJzeXN0ZW1zQHJlbnUuYWMudWcxIzAh
BgNVBAMMGlJFTlUgQ2VydGlmaWNhdGUgQXV0aG9yaXR5MB4XDTIzMDYyODE1NDUz
OFoXDTMzMDUwNjE1NDUzOFowgaIxCzAJBgNVBAYTAlVHMRAwDgYDVQQIDAdLYW1w
YWxhMTkwNwYDVQQKDDBSZXNlYXJjaCBhbmQgRWR1Y2F0aW9uIE5ldHdvcmsgZm9y
IFVnYW5kYSAoUkVOVSkxIzAhBgNVBAMMGm1nZC1pZHAtcmFkaXVzMi5yZW51LmFj
LnVnMSEwHwYJKoZIhvcNAQkBFhJzeXN0ZW1zQHJlbnUuYWMudWcwggEiMA0GCSqG
SIb3DQEBAQUAA4IBDwAwggEKAoIBAQC92KDwrcQP5kkMw/V4J54z76G5ExOEtYlo
NVAHvAOncHYQBMiFHKl7l1CAI0UT2qbBcl4MEXrP9/Md0+ub6+zBvOWFVcpu1Guu
iOQf9h5bCFH3xjDPzjnFdqf7M23iW+88nM1gofOXe7oRzZa4MeAqrNThC8ytVq2g
u/ajjvjpzBbLBZhlg3V3E1wyRkBINyLlAl309iCg/Odv3z6o4QBiRvszncGjCXK9
JC94jsliMwiS4B1KLy6L8XDZEKXXLX6WtnyaJjKxgxwk27TCWcdaXfJnLFhOviku
vXI1X6SWRjl7ywQV06+sOD+eZ0g8DJMj7X6mlVrPUg7EDsDAXx0/AgMBAAGjaTBn
MBMGA1UdJQQMMAoGCCsGAQUFBwMBMDYGA1UdHwQvMC0wK6ApoCeGJWh0dHA6Ly93
d3cuZXhhbXBsZS5jb20vZXhhbXBsZV9jYS5jcmwwGAYDVR0gBBEwDzANBgsrBgEE
AYK+aAEDAjANBgkqhkiG9w0BAQsFAAOCAQEAaX9FJ6ixvBcJb0IfeMgSmcNtfXZ4
0/RdNY7U0YzCmmECPhq2yO55GW5fsg/lJlEbMvnpTIWqEToCJoweJ4CEx7q8sKQ0
M5/X0BfxUhPSvbiz8EP/VCADuIIajEROkFks4dg5cFoKlLQ6lsDGfa9KXWIc0NsO
7bf9iURY7HdTrRSkpwcFhDL8+HKS2T0T0OGgB5yvgOz0S38/LZ42yVDkvF4sfDhH
Y4rSJPS6zKbt22LNiY5hsgeQfpE/GXONdwZ/ZYb2eE/ZeHX2VzjB+tJ9l2rXdy4i
jaLkkx2KrgGEvS4/mglE0Ftu29fcte9g/7GZvxuWw2cAaNLefJ8SCSnb0g==
-----END CERTIFICATE-----
